target datalayout = "e-m:e-p270:32:32-p271:32:32-p272:64:64-i64:64-i128:128-f80:128-n8:16:32:64-S128"
target triple = "x86_64-pc-linux-gnu"

; Function Attrs: alwaysinline nounwind willreturn memory(none) uwtable
define internal i32 @av_clip_uintp2_c(i32 noundef %0, i32 noundef %1) #3 {
  %3 = alloca i32, align 4
  %4 = alloca i32, align 4
  %5 = alloca i32, align 4
  store i32 %0, ptr %4, align 4, !tbaa !9
  store i32 %1, ptr %5, align 4, !tbaa !9
  %6 = load i32, ptr %4, align 4, !tbaa !9
  %7 = load i32, ptr %5, align 4, !tbaa !9
  %8 = shl i32 1, %7
  %9 = sub i32 %8, 1
  %10 = xor i32 %9, -1
  %11 = and i32 %6, %10
  %12 = icmp ne i32 %11, 0
  br i1 %12, label %13, label %21

13:                                               ; preds = %2
  %14 = load i32, ptr %4, align 4, !tbaa !9
  %15 = xor i32 %14, -1
  %16 = ashr i32 %15, 31
  %17 = load i32, ptr %5, align 4, !tbaa !9
  %18 = shl i32 1, %17
  %19 = sub i32 %18, 1
  %20 = and i32 %16, %19
  store i32 %20, ptr %3, align 4
  br label %23

21:                                               ; preds = %2
  %22 = load i32, ptr %4, align 4, !tbaa !9
  store i32 %22, ptr %3, align 4
  br label %23

23:                                               ; preds = %21, %13
  %24 = load i32, ptr %3, align 4
  ret i32 %24
}

; Function Attrs: nounwind uwtable
define internal void @sao_band_filter_12(ptr noundef %0, ptr noundef %1, i64 noundef %2, i64 noundef %3, ptr noundef %4, i32 noundef %5, i32 noundef %6, i32 noundef %7) #0 {
  %9 = alloca ptr, align 8
  %10 = alloca ptr, align 8
  %11 = alloca i64, align 8
  %12 = alloca i64, align 8
  %13 = alloca ptr, align 8
  %14 = alloca i32, align 4
  %15 = alloca i32, align 4
  %16 = alloca i32, align 4
  %17 = alloca ptr, align 8
  %18 = alloca ptr, align 8
  %19 = alloca [32 x i32], align 16
  %20 = alloca i32, align 4
  %21 = alloca i32, align 4
  %22 = alloca i32, align 4
  %23 = alloca i32, align 4
  store ptr %0, ptr %9, align 8, !tbaa !144
  store ptr %1, ptr %10, align 8, !tbaa !144
  store i64 %2, ptr %11, align 8, !tbaa !146
  store i64 %3, ptr %12, align 8, !tbaa !146
  store ptr %4, ptr %13, align 8, !tbaa !142
  store i32 %5, ptr %14, align 4, !tbaa !9
  store i32 %6, ptr %15, align 4, !tbaa !9
  store i32 %7, ptr %16, align 4, !tbaa !9
  call void @llvm.lifetime.start.p0(i64 8, ptr %17) #8
  %24 = load ptr, ptr %9, align 8, !tbaa !144
  store ptr %24, ptr %17, align 8, !tbaa !142
  call void @llvm.lifetime.start.p0(i64 8, ptr %18) #8
  %25 = load ptr, ptr %10, align 8, !tbaa !144
  store ptr %25, ptr %18, align 8, !tbaa !142
  call void @llvm.lifetime.start.p0(i64 128, ptr %19) #8
  call void @llvm.memset.p0.i64(ptr align 16 %19, i8 0, i64 128, i1 false)
  call void @llvm.lifetime.start.p0(i64 4, ptr %20) #8
  call void @llvm.lifetime.start.p0(i64 4, ptr %21) #8
  call void @llvm.lifetime.start.p0(i64 4, ptr %22) #8
  call void @llvm.lifetime.start.p0(i64 4, ptr %23) #8
  store i32 7, ptr %23, align 4, !tbaa !9
  %26 = load i64, ptr %11, align 8, !tbaa !146
  %27 = udiv i64 %26, 2
  store i64 %27, ptr %11, align 8, !tbaa !146
  %28 = load i64, ptr %12, align 8, !tbaa !146
  %29 = udiv i64 %28, 2
  store i64 %29, ptr %12, align 8, !tbaa !146
  store i32 0, ptr %20, align 4, !tbaa !9
  br label %30

30:                                               ; preds = %47, %8
  %31 = load i32, ptr %20, align 4, !tbaa !9
  %32 = icmp slt i32 %31, 4
  br i1 %32, label %33, label %50

33:                                               ; preds = %30
  %34 = load ptr, ptr %13, align 8, !tbaa !142
  %35 = load i32, ptr %20, align 4, !tbaa !9
  %36 = add nsw i32 %35, 1
  %37 = sext i32 %36 to i64
  %38 = getelementptr inbounds i16, ptr %34, i64 %37
  %39 = load i16, ptr %38, align 2, !tbaa !148
  %40 = sext i16 %39 to i32
  %41 = load i32, ptr %20, align 4, !tbaa !9
  %42 = load i32, ptr %14, align 4, !tbaa !9
  %43 = add nsw i32 %41, %42
  %44 = and i32 %43, 31
  %45 = sext i32 %44 to i64
  %46 = getelementptr inbounds [32 x i32], ptr %19, i64 0, i64 %45
  store i32 %40, ptr %46, align 4, !tbaa !9
  br label %47

47:                                               ; preds = %33
  %48 = load i32, ptr %20, align 4, !tbaa !9
  %49 = add nsw i32 %48, 1
  store i32 %49, ptr %20, align 4, !tbaa !9
  br label %30, !llvm.loop !441

50:                                               ; preds = %30
  store i32 0, ptr %21, align 4, !tbaa !9
  br label %51

51:                                               ; preds = %96, %50
  %52 = load i32, ptr %21, align 4, !tbaa !9
  %53 = load i32, ptr %16, align 4, !tbaa !9
  %54 = icmp slt i32 %52, %53
  br i1 %54, label %55, label %99

55:                                               ; preds = %51
  store i32 0, ptr %22, align 4, !tbaa !9
  br label %56

56:                                               ; preds = %86, %55
  %57 = load i32, ptr %22, align 4, !tbaa !9
  %58 = load i32, ptr %15, align 4, !tbaa !9
  %59 = icmp slt i32 %57, %58
  br i1 %59, label %60, label %89

60:                                               ; preds = %56
  %61 = load ptr, ptr %18, align 8, !tbaa !142
  %62 = load i32, ptr %22, align 4, !tbaa !9
  %63 = sext i32 %62 to i64
  %64 = getelementptr inbounds i16, ptr %61, i64 %63
  %65 = load i16, ptr %64, align 2, !tbaa !148
  %66 = zext i16 %65 to i32
  %67 = load ptr, ptr %18, align 8, !tbaa !142
  %68 = load i32, ptr %22, align 4, !tbaa !9
  %69 = sext i32 %68 to i64
  %70 = getelementptr inbounds i16, ptr %67, i64 %69
  %71 = load i16, ptr %70, align 2, !tbaa !148
  %72 = zext i16 %71 to i32
  %73 = load i32, ptr %23, align 4, !tbaa !9
  %74 = ashr i32 %72, %73
  %75 = and i32 %74, 31
  %76 = sext i32 %75 to i64
  %77 = getelementptr inbounds [32 x i32], ptr %19, i64 0, i64 %76
  %78 = load i32, ptr %77, align 4, !tbaa !9
  %79 = add nsw i32 %66, %78
  %80 = call i32 @av_clip_uintp2_c(i32 noundef %79, i32 noundef 12) #9
  %81 = trunc i32 %80 to i16
  %82 = load ptr, ptr %17, align 8, !tbaa !142
  %83 = load i32, ptr %22, align 4, !tbaa !9
  %84 = sext i32 %83 to i64
  %85 = getelementptr inbounds i16, ptr %82, i64 %84
  store i16 %81, ptr %85, align 2, !tbaa !148
  br label %86

86:                                               ; preds = %60
  %87 = load i32, ptr %22, align 4, !tbaa !9
  %88 = add nsw i32 %87, 1
  store i32 %88, ptr %22, align 4, !tbaa !9
  br label %56, !llvm.loop !442

89:                                               ; preds = %56
  %90 = load i64, ptr %11, align 8, !tbaa !146
  %91 = load ptr, ptr %17, align 8, !tbaa !142
  %92 = getelementptr inbounds i16, ptr %91, i64 %90
  store ptr %92, ptr %17, align 8, !tbaa !142
  %93 = load i64, ptr %12, align 8, !tbaa !146
  %94 = load ptr, ptr %18, align 8, !tbaa !142
  %95 = getelementptr inbounds i16, ptr %94, i64 %93
  store ptr %95, ptr %18, align 8, !tbaa !142
  br label %96

96:                                               ; preds = %89
  %97 = load i32, ptr %21, align 4, !tbaa !9
  %98 = add nsw i32 %97, 1
  store i32 %98, ptr %21, align 4, !tbaa !9
  br label %51, !llvm.loop !443

99:                                               ; preds = %51
  call void @llvm.lifetime.end.p0(i64 4, ptr %23) #8
  call void @llvm.lifetime.end.p0(i64 4, ptr %22) #8
  call void @llvm.lifetime.end.p0(i64 4, ptr %21) #8
  call void @llvm.lifetime.end.p0(i64 4, ptr %20) #8
  call void @llvm.lifetime.end.p0(i64 128, ptr %19) #8
  call void @llvm.lifetime.end.p0(i64 8, ptr %18) #8
  call void @llvm.lifetime.end.p0(i64 8, ptr %17) #8
  ret void
}