; Function Attrs: nofree norecurse nosync nounwind memory(argmem: readwrite) uwtable
define internal void @sao_band_filter_12(ptr noundef writeonly captures(none) %0, ptr noundef readonly captures(none) %1, i64 noundef %2, i64 noundef %3, ptr noundef readonly captures(none) %4, i32 noundef %5, i32 noundef %6, i32 noundef %7) #2 {
  %9 = alloca [32 x i32], align 16
  call void @llvm.lifetime.start.p0(i64 128, ptr nonnull %9) #14
  call void @llvm.memset.p0.i64(ptr noundef nonnull align 16 dereferenceable(128) %9, i8 0, i64 128, i1 false)
  br label %31

.preheader30:                                     ; preds = %31
  %10 = lshr i64 %2, 1
  %11 = lshr i64 %3, 1
  %12 = icmp sgt i32 %7, 0
  %13 = icmp sgt i32 %6, 0
  %or.cond = and i1 %12, %13
  br i1 %or.cond, label %.preheader.us.preheader, label %._crit_edge36

.preheader.us.preheader:                          ; preds = %.preheader30
  %wide.trip.count = zext nneg i32 %6 to i64
  br label %.preheader.us

.preheader.us:                                    ; preds = %.preheader.us.preheader, %._crit_edge.us
  %.02635.us = phi i32 [ %30, %._crit_edge.us ], [ 0, %.preheader.us.preheader ]
  %.02834.us = phi ptr [ %29, %._crit_edge.us ], [ %1, %.preheader.us.preheader ]
  %.02933.us = phi ptr [ %28, %._crit_edge.us ], [ %0, %.preheader.us.preheader ]
  br label %14

14:                                               ; preds = %.preheader.us, %14
  %indvars.iv39 = phi i64 [ 0, %.preheader.us ], [ %indvars.iv.next40, %14 ]
  %15 = getelementptr inbounds nuw i16, ptr %.02834.us, i64 %indvars.iv39
  %16 = load i16, ptr %15, align 2, !tbaa !124
  %17 = zext i16 %16 to i32
  %18 = lshr i32 %17, 7
  %19 = and i32 %18, 31
  %20 = zext nneg i32 %19 to i64
  %21 = getelementptr inbounds nuw [32 x i32], ptr %9, i64 0, i64 %20
  %22 = load i32, ptr %21, align 4, !tbaa !274
  %23 = add nsw i32 %22, %17
  %24 = tail call i32 @llvm.smax.i32(i32 %23, i32 0)
  %25 = tail call i32 @llvm.umin.i32(i32 %24, i32 4095)
  %26 = trunc nuw nsw i32 %25 to i16
  %27 = getelementptr inbounds nuw i16, ptr %.02933.us, i64 %indvars.iv39
  store i16 %26, ptr %27, align 2, !tbaa !124
  %indvars.iv.next40 = add nuw nsw i64 %indvars.iv39, 1
  %exitcond42.not = icmp eq i64 %indvars.iv.next40, %wide.trip.count
  br i1 %exitcond42.not, label %._crit_edge.us, label %14, !llvm.loop !407

._crit_edge.us:                                   ; preds = %14
  %28 = getelementptr inbounds nuw i16, ptr %.02933.us, i64 %10
  %29 = getelementptr inbounds nuw i16, ptr %.02834.us, i64 %11
  %30 = add nuw nsw i32 %.02635.us, 1
  %exitcond43.not = icmp eq i32 %30, %7
  br i1 %exitcond43.not, label %._crit_edge36, label %.preheader.us, !llvm.loop !408

31:                                               ; preds = %8, %31
  %indvars.iv = phi i64 [ 0, %8 ], [ %indvars.iv.next, %31 ]
  %indvars.iv.next = add nuw nsw i64 %indvars.iv, 1
  %32 = getelementptr inbounds nuw i16, ptr %4, i64 %indvars.iv.next
  %33 = load i16, ptr %32, align 2, !tbaa !124
  %34 = sext i16 %33 to i32
  %35 = trunc i64 %indvars.iv to i32
  %36 = add i32 %5, %35
  %37 = and i32 %36, 31
  %38 = zext nneg i32 %37 to i64
  %39 = getelementptr inbounds nuw [32 x i32], ptr %9, i64 0, i64 %38
  store i32 %34, ptr %39, align 4, !tbaa !274
  %exitcond.not = icmp eq i64 %indvars.iv.next, 4
  br i1 %exitcond.not, label %.preheader30, label %31, !llvm.loop !409

._crit_edge36:                                    ; preds = %._crit_edge.us, %.preheader30
  call void @llvm.lifetime.end.p0(i64 128, ptr nonnull %9) #14
  ret void
}